(dp0
S'SDM_name'
p1
S'14A-468.sb29639312.eb29693960.56920.90377532407'
p2
sS'gmt_time'
p3
S'Fri, 20 Jul 2018 08:20:51 +0000'
p4
sS'time_list'
p5
(lp6
(dp7
S'status'
p8
S'start'
p9
sS'pipestate'
p10
S'startup'
p11
sS'time'
p12
F1532035297.447825
sa(dp13
g8
S'end'
p14
sg10
g11
sg12
F1532035297.616482
sa(dp15
g8
g9
sg10
S'import'
p16
sg12
F1532035297.663661
sa(dp17
g8
g14
sg10
g16
sg12
F1532035297.666988
sa(dp18
g8
g9
sg10
S'msinfo'
p19
sg12
F1532035297.677604
sa(dp20
g8
g14
sg10
g19
sg12
F1532035353.258698
sa(dp21
g8
g9
sg10
S'flagall'
p22
sg12
F1532035353.30074
sa(dp23
g8
g14
sg10
g22
sg12
F1532041392.588103
sa(dp24
g8
g9
sg10
S'calprep'
p25
sg12
F1532041392.614117
sa(dp26
g8
g14
sg10
g25
sg12
F1532041484.873863
sa(dp27
g8
g9
sg10
S'priorcals'
p28
sg12
F1532041484.896764
sa(dp29
g8
g14
sg10
g28
sg12
F1532041819.717079
sa(dp30
g8
g9
sg10
S'testBPdcals'
p31
sg12
F1532041819.754942
sa(dp32
g8
g14
sg10
g31
sg12
F1532045372.277132
sa(dp33
g8
g9
sg10
S'flag_baddeformatters'
p34
sg12
F1532045372.40613
sa(dp35
g8
g14
sg10
g34
sg12
F1532045500.711764
sa(dp36
g8
g9
sg10
S'flag_baddeformattersphase'
p37
sg12
F1532045500.726365
sa(dp38
g8
g14
sg10
g37
sg12
F1532045616.633152
sa(dp39
g8
g9
sg10
S'checkflag'
p40
sg12
F1532045616.649816
sa(dp41
g8
g14
sg10
g40
sg12
F1532045875.517557
sa(dp42
g8
g9
sg10
S'semiFinalBPdcals1'
p43
sg12
F1532045875.53262
sa(dp44
g8
g14
sg10
g43
sg12
F1532048198.272802
sa(dp45
g8
g9
sg10
S'checkflag_semiFinal'
p46
sg12
F1532048198.293904
sa(dp47
g8
g14
sg10
g46
sg12
F1532049531.945669
sa(dp48
g8
g9
sg10
S'semiFinalBPdcals2'
p49
sg12
F1532050634.67642
sa(dp50
g8
g14
sg10
g49
sg12
F1532052462.591143
sa(dp51
g8
g9
sg10
S'solint'
p52
sg12
F1532052462.599527
sa(dp53
g8
g14
sg10
g52
sg12
F1532052529.012581
sa(dp54
g8
g9
sg10
S'testgains'
p55
sg12
F1532052529.027763
sa(dp56
g8
g14
sg10
g55
sg12
F1532052599.125446
sa(dp57
g8
g9
sg10
S'fluxgains'
p58
sg12
F1532052599.185905
sa(dp59
g8
g14
sg10
g58
sg12
F1532052762.434481
sa(dp60
g8
g9
sg10
S'fluxboot'
p61
sg12
F1532052762.446248
sa(dp62
g8
g14
sg10
g61
sg12
F1532053068.515981
sa(dp63
g8
g9
sg10
S'finalcals'
p64
sg12
F1532053068.554123
sa(dp65
g8
g14
sg10
g64
sg12
F1532055199.694408
sa(dp66
g8
g9
sg10
S'applycals'
p67
sg12
F1532055199.724872
sa(dp68
g8
g14
sg10
g67
sg12
F1532061036.836099
sa(dp69
g8
g9
sg10
g40
sg12
F1532061036.882106
sa(dp70
g8
g14
sg10
S'targetflag'
p71
sg12
F1532069091.513344
sa(dp72
g8
g9
sg10
g40
sg12
F1532069091.55871
sa(dp73
g8
g14
sg10
g71
sg12
F1532069723.69694
sa(dp74
g8
g9
sg10
S'plotsummary'
p75
sg12
F1532069723.708598
sa(dp76
g8
g14
sg10
g75
sg12
F1532074850.965788
sa(dp77
g8
g9
sg10
S'filecollect'
p78
sg12
F1532074851.028804
sasS'ms_size'
p79
F194.47379282861948
sS'version'
p80
S'1.4.0'
p81
sS'svnrevision'
p82
S'11nnn'
p83
s.